target datalayout = "e-m:e-p270:32:32-p271:32:32-p272:64:64-i64:64-i128:128-f80:128-n8:16:32:64-S128"
target triple = "x86_64-unknown-linux-gnu"

%struct.hdr_histogram = type { i64, i64, i32, i32, i32, i32, i64, i32, i32, i64, i64, i32, double, i32, i64, ptr }
%struct.hdr_iter = type { ptr, i32, i64, i64, i64, i64, i64, i64, i64, i64, i64, %union.anon, ptr }
%union.anon = type { %struct.hdr_iter_linear }
%struct.hdr_iter_linear = type { i64, i64, i64, i64 }
%struct.hdr_iter_recorded = type { i64 }

; Function Attrs: nounwind uwtable
define internal zeroext i1 @has_next(ptr noundef %iter) #0 {
entry:
  %iter.addr = alloca ptr, align 8
  store ptr %iter, ptr %iter.addr, align 8
  %0 = load ptr, ptr %iter.addr, align 8
  %cumulative_count = getelementptr inbounds %struct.hdr_iter, ptr %0, i32 0, i32 4
  %1 = load i64, ptr %cumulative_count, align 8
  %2 = load ptr, ptr %iter.addr, align 8
  %total_count = getelementptr inbounds %struct.hdr_iter, ptr %2, i32 0, i32 2
  %3 = load i64, ptr %total_count, align 8
  %cmp = icmp slt i64 %1, %3
  ret i1 %cmp
}

; Function Attrs: nounwind uwtable
define internal void @update_iterated_values(ptr noundef %iter, i64 noundef %new_value_iterated_to) #0 {
entry:
  %iter.addr = alloca ptr, align 8
  %new_value_iterated_to.addr = alloca i64, align 8
  store ptr %iter, ptr %iter.addr, align 8
  store i64 %new_value_iterated_to, ptr %new_value_iterated_to.addr, align 8
  %0 = load ptr, ptr %iter.addr, align 8
  %value_iterated_to = getelementptr inbounds %struct.hdr_iter, ptr %0, i32 0, i32 10
  %1 = load i64, ptr %value_iterated_to, align 8
  %2 = load ptr, ptr %iter.addr, align 8
  %value_iterated_from = getelementptr inbounds %struct.hdr_iter, ptr %2, i32 0, i32 9
  store i64 %1, ptr %value_iterated_from, align 8
  %3 = load i64, ptr %new_value_iterated_to.addr, align 8
  %4 = load ptr, ptr %iter.addr, align 8
  %value_iterated_to1 = getelementptr inbounds %struct.hdr_iter, ptr %4, i32 0, i32 10
  store i64 %3, ptr %value_iterated_to1, align 8
  ret void
}

; Function Attrs: nounwind uwtable
define internal zeroext i1 @basic_iter_next(ptr noundef %iter) #0 {
entry:
  %retval = alloca i1, align 1
  %iter.addr = alloca ptr, align 8
  store ptr %iter, ptr %iter.addr, align 8
  %0 = load ptr, ptr %iter.addr, align 8
  %call = call zeroext i1 @has_next(ptr noundef %0)
  br i1 %call, label %lor.lhs.false, label %if.then

lor.lhs.false:                                    ; preds = %entry
  %1 = load ptr, ptr %iter.addr, align 8
  %counts_index = getelementptr inbounds %struct.hdr_iter, ptr %1, i32 0, i32 1
  %2 = load i32, ptr %counts_index, align 8
  %3 = load ptr, ptr %iter.addr, align 8
  %h = getelementptr inbounds %struct.hdr_iter, ptr %3, i32 0, i32 0
  %4 = load ptr, ptr %h, align 8
  %counts_len = getelementptr inbounds %struct.hdr_histogram, ptr %4, i32 0, i32 13
  %5 = load i32, ptr %counts_len, align 8
  %cmp = icmp sge i32 %2, %5
  br i1 %cmp, label %if.then, label %if.end

if.then:                                          ; preds = %lor.lhs.false, %entry
  store i1 false, ptr %retval, align 1
  br label %return

if.end:                                           ; preds = %lor.lhs.false
  %6 = load ptr, ptr %iter.addr, align 8
  %call1 = call zeroext i1 @move_next(ptr noundef %6)
  store i1 true, ptr %retval, align 1
  br label %return

return:                                           ; preds = %if.end, %if.then
  %7 = load i1, ptr %retval, align 1
  ret i1 %7
}

; Function Attrs: nounwind uwtable
define internal zeroext i1 @recorded_iter_next(ptr noundef %iter) #0 {
entry:
  %retval = alloca i1, align 1
  %iter.addr = alloca ptr, align 8
  store ptr %iter, ptr %iter.addr, align 8
  br label %while.cond

while.cond:                                       ; preds = %if.end, %entry
  %0 = load ptr, ptr %iter.addr, align 8
  %call = call zeroext i1 @basic_iter_next(ptr noundef %0)
  br i1 %call, label %while.body, label %while.end

while.body:                                       ; preds = %while.cond
  %1 = load ptr, ptr %iter.addr, align 8
  %count = getelementptr inbounds %struct.hdr_iter, ptr %1, i32 0, i32 3
  %2 = load i64, ptr %count, align 8
  %cmp = icmp ne i64 %2, 0
  br i1 %cmp, label %if.then, label %if.end

if.then:                                          ; preds = %while.body
  %3 = load ptr, ptr %iter.addr, align 8
  %4 = load ptr, ptr %iter.addr, align 8
  %value = getelementptr inbounds %struct.hdr_iter, ptr %4, i32 0, i32 5
  %5 = load i64, ptr %value, align 8
  call void @update_iterated_values(ptr noundef %3, i64 noundef %5)
  %6 = load ptr, ptr %iter.addr, align 8
  %count1 = getelementptr inbounds %struct.hdr_iter, ptr %6, i32 0, i32 3
  %7 = load i64, ptr %count1, align 8
  %8 = load ptr, ptr %iter.addr, align 8
  %specifics = getelementptr inbounds %struct.hdr_iter, ptr %8, i32 0, i32 11
  %count_added_in_this_iteration_step = getelementptr inbounds %struct.hdr_iter_recorded, ptr %specifics, i32 0, i32 0
  store i64 %7, ptr %count_added_in_this_iteration_step, align 8
  store i1 true, ptr %retval, align 1
  br label %return

if.end:                                           ; preds = %while.body
  br label %while.cond

while.end:                                        ; preds = %while.cond
  store i1 false, ptr %retval, align 1
  br label %return

return:                                           ; preds = %while.end, %if.then
  %9 = load i1, ptr %retval, align 1
  ret i1 %9
}