; Function Attrs: nofree norecurse nosync nounwind memory(read, argmem: readwrite, inaccessiblemem: none) uwtable
define internal noundef zeroext i1 @recorded_iter_next(ptr nocapture noundef %iter) #1 {
entry:
  %0 = getelementptr i8, ptr %iter, i64 16
  %1 = getelementptr i8, ptr %iter, i64 32
  %counts_index.i = getelementptr inbounds i8, ptr %iter, i64 8
  %count = getelementptr inbounds i8, ptr %iter, i64 24
  br label %while.cond

while.cond:                                       ; preds = %while.body, %entry
  %iter.val.i = load i64, ptr %0, align 8
  %iter.val4.i = load i64, ptr %1, align 8
  %cmp.i.i = icmp slt i64 %iter.val4.i, %iter.val.i
  br i1 %cmp.i.i, label %lor.lhs.false.i, label %return

lor.lhs.false.i:                                  ; preds = %while.cond
  %2 = load i32, ptr %counts_index.i, align 8
  %3 = load ptr, ptr %iter, align 8
  %counts_len.i = getelementptr inbounds i8, ptr %3, i64 80
  %4 = load i32, ptr %counts_len.i, align 8
  %cmp.not.i = icmp slt i32 %2, %4
  br i1 %cmp.not.i, label %while.body, label %return

while.body:                                       ; preds = %lor.lhs.false.i
  %call1.i = tail call fastcc zeroext i1 @move_next(ptr noundef nonnull %iter)
  %5 = load i64, ptr %count, align 8
  %cmp.not = icmp eq i64 %5, 0
  br i1 %cmp.not, label %while.cond, label %if.then

if.then:                                          ; preds = %while.body
  %value = getelementptr inbounds i8, ptr %iter, i64 40
  %6 = load i64, ptr %value, align 8
  %value_iterated_to.i = getelementptr inbounds i8, ptr %iter, i64 80
  %7 = load i64, ptr %value_iterated_to.i, align 8
  %value_iterated_from.i = getelementptr inbounds i8, ptr %iter, i64 72
  store i64 %7, ptr %value_iterated_from.i, align 8
  store i64 %6, ptr %value_iterated_to.i, align 8
  %specifics = getelementptr inbounds i8, ptr %iter, i64 88
  store i64 %5, ptr %specifics, align 8
  br label %return

return:                                           ; preds = %while.cond, %lor.lhs.false.i, %if.then
  %retval.0.i7 = phi i1 [ true, %if.then ], [ false, %lor.lhs.false.i ], [ false, %while.cond ]
  ret i1 %retval.0.i7
}